target datalayout = "e-m:e-p270:32:32-p271:32:32-p272:64:64-i64:64-i128:128-f80:128-n8:16:32:64-S128"
target triple = "x86_64-pc-linux-gnu"

%struct.FunctionCallInfoBaseData = type { ptr, ptr, ptr, i32, i8, i16, [0 x %struct.NullableDatum] }
%struct.NullableDatum = type { i64, i8 }
%struct.GISTENTRY = type { i64, ptr, ptr, i16, i8 }
%struct.PageHeaderData = type { %struct.PageXLogRecPtr, i16, i16, i16, i16, i16, i16, i32, [0 x %struct.ItemIdData] }
%struct.PageXLogRecPtr = type { i32, i32 }
%struct.ItemIdData = type { i32 }
%struct.GISTPageOpaqueData = type { %struct.PageXLogRecPtr, i32, i16, i16 }
%union.anon.0 = type { double }

@.str = private unnamed_addr constant [33 x i8] c"unrecognized strategy number: %d\00", align 1
@.str.1 = private unnamed_addr constant [11 x i8] c"gistproc.c\00", align 1
@__func__.gist_point_distance = private unnamed_addr constant [20 x i8] c"gist_point_distance\00", align 1

; Function Attrs: inlinehint nounwind uwtable
define internal i64 @Int64GetDatum(i64 noundef %0) #2 {
  %2 = alloca i64, align 8
  store i64 %0, ptr %2, align 8
  %3 = load i64, ptr %2, align 8
  ret i64 %3
}

; Function Attrs: inlinehint nounwind uwtable
define internal i64 @Float8GetDatum(double noundef %0) #2 {
  %2 = alloca double, align 8
  %3 = alloca %union.anon.0, align 8
  store double %0, ptr %2, align 8
  call void @llvm.lifetime.start.p0(i64 8, ptr %3) #10
  %4 = load double, ptr %2, align 8
  store double %4, ptr %3, align 8
  %5 = load i64, ptr %3, align 8
  %6 = call i64 @Int64GetDatum(i64 noundef %5)
  call void @llvm.lifetime.end.p0(i64 8, ptr %3) #10
  ret i64 %6
}

; Function Attrs: inlinehint nounwind uwtable
define internal ptr @DatumGetPointP(i64 noundef %0) #2 {
  %2 = alloca i64, align 8
  store i64 %0, ptr %2, align 8
  %3 = load i64, ptr %2, align 8
  %4 = call ptr @DatumGetPointer(i64 noundef %3)
  ret ptr %4
}

; Function Attrs: inlinehint nounwind uwtable
define internal ptr @DatumGetBoxP(i64 noundef %0) #2 {
  %2 = alloca i64, align 8
  store i64 %0, ptr %2, align 8
  %3 = load i64, ptr %2, align 8
  %4 = call ptr @DatumGetPointer(i64 noundef %3)
  ret ptr %4
}

; Function Attrs: inlinehint nounwind uwtable
define internal void @PageValidateSpecialPointer(ptr noundef %0) #2 {
  %2 = alloca ptr, align 8
  store ptr %0, ptr %2, align 8
  ret void
}

; Function Attrs: inlinehint nounwind uwtable
define internal zeroext i16 @DatumGetUInt16(i64 noundef %0) #2 {
  %2 = alloca i64, align 8
  store i64 %0, ptr %2, align 8
  %3 = load i64, ptr %2, align 8
  %4 = trunc i64 %3 to i16
  ret i16 %4
}

; Function Attrs: inlinehint nounwind uwtable
define internal ptr @DatumGetPointer(i64 noundef %0) #2 {
  %2 = alloca i64, align 8
  store i64 %0, ptr %2, align 8
  %3 = load i64, ptr %2, align 8
  %4 = inttoptr i64 %3 to ptr
  ret ptr %4
}

; Function Attrs: nounwind uwtable
define dso_local i64 @gist_point_distance(ptr noundef %0) #0 {
  %2 = alloca ptr, align 8
  %3 = alloca ptr, align 8
  %4 = alloca i16, align 2
  %5 = alloca double, align 8
  %6 = alloca i16, align 2
  store ptr %0, ptr %2, align 8
  call void @llvm.lifetime.start.p0(i64 8, ptr %3) #10
  %7 = load ptr, ptr %2, align 8
  %8 = getelementptr inbounds nuw %struct.FunctionCallInfoBaseData, ptr %7, i32 0, i32 6
  %9 = getelementptr inbounds [0 x %struct.NullableDatum], ptr %8, i64 0, i64 0
  %10 = getelementptr inbounds nuw %struct.NullableDatum, ptr %9, i32 0, i32 0
  %11 = load i64, ptr %10, align 8
  %12 = call ptr @DatumGetPointer(i64 noundef %11)
  store ptr %12, ptr %3, align 8
  call void @llvm.lifetime.start.p0(i64 2, ptr %4) #10
  %13 = load ptr, ptr %2, align 8
  %14 = getelementptr inbounds nuw %struct.FunctionCallInfoBaseData, ptr %13, i32 0, i32 6
  %15 = getelementptr inbounds [0 x %struct.NullableDatum], ptr %14, i64 0, i64 2
  %16 = getelementptr inbounds nuw %struct.NullableDatum, ptr %15, i32 0, i32 0
  %17 = load i64, ptr %16, align 8
  %18 = call zeroext i16 @DatumGetUInt16(i64 noundef %17)
  store i16 %18, ptr %4, align 2
  call void @llvm.lifetime.start.p0(i64 8, ptr %5) #10
  call void @llvm.lifetime.start.p0(i64 2, ptr %6) #10
  %19 = load i16, ptr %4, align 2
  %20 = zext i16 %19 to i32
  %21 = sdiv i32 %20, 20
  %22 = trunc i32 %21 to i16
  store i16 %22, ptr %6, align 2
  %23 = load i16, ptr %6, align 2
  %24 = zext i16 %23 to i32
  switch i32 %24, label %56 [
    i32 0, label %25
  ]

25:                                               ; preds = %1
  %26 = load ptr, ptr %3, align 8
  %27 = getelementptr inbounds nuw %struct.GISTENTRY, ptr %26, i32 0, i32 2
  %28 = load ptr, ptr %27, align 8
  call void @PageValidateSpecialPointer(ptr noundef %28)
  %29 = load ptr, ptr %3, align 8
  %30 = getelementptr inbounds nuw %struct.GISTENTRY, ptr %29, i32 0, i32 2
  %31 = load ptr, ptr %30, align 8
  %32 = load ptr, ptr %3, align 8
  %33 = getelementptr inbounds nuw %struct.GISTENTRY, ptr %32, i32 0, i32 2
  %34 = load ptr, ptr %33, align 8
  %35 = getelementptr inbounds nuw %struct.PageHeaderData, ptr %34, i32 0, i32 5
  %36 = load i16, ptr %35, align 4
  %37 = zext i16 %36 to i32
  %38 = sext i32 %37 to i64
  %39 = getelementptr inbounds i8, ptr %31, i64 %38
  %40 = getelementptr inbounds nuw %struct.GISTPageOpaqueData, ptr %39, i32 0, i32 2
  %41 = load i16, ptr %40, align 4
  %42 = zext i16 %41 to i32
  %43 = and i32 %42, 1
  %44 = icmp ne i32 %43, 0
  %45 = load ptr, ptr %3, align 8
  %46 = getelementptr inbounds nuw %struct.GISTENTRY, ptr %45, i32 0, i32 0
  %47 = load i64, ptr %46, align 8
  %48 = call ptr @DatumGetBoxP(i64 noundef %47)
  %49 = load ptr, ptr %2, align 8
  %50 = getelementptr inbounds nuw %struct.FunctionCallInfoBaseData, ptr %49, i32 0, i32 6
  %51 = getelementptr inbounds [0 x %struct.NullableDatum], ptr %50, i64 0, i64 1
  %52 = getelementptr inbounds nuw %struct.NullableDatum, ptr %51, i32 0, i32 0
  %53 = load i64, ptr %52, align 8
  %54 = call ptr @DatumGetPointP(i64 noundef %53)
  %55 = call double @computeDistance(i1 noundef zeroext %44, ptr noundef %48, ptr noundef %54)
  store double %55, ptr %5, align 8
  br label %69

56:                                               ; preds = %1
  br label %57

57:                                               ; preds = %56
  br i1 true, label %58, label %60

58:                                               ; preds = %57
  %59 = call zeroext i1 @errstart_cold(i32 noundef 21, ptr noundef null) #11
  br i1 %59, label %62, label %66

60:                                               ; preds = %57
  %61 = call zeroext i1 @errstart(i32 noundef 21, ptr noundef null)
  br i1 %61, label %62, label %66

62:                                               ; preds = %60, %58
  %63 = load i16, ptr %4, align 2
  %64 = zext i16 %63 to i32
  %65 = call i32 (ptr, ...) @errmsg_internal(ptr noundef @.str, i32 noundef %64)
  call void @errfinish(ptr noundef @.str.1, i32 noundef 1470, ptr noundef @__func__.gist_point_distance)
  br label %66

66:                                               ; preds = %62, %60, %58
  unreachable

67:                                               ; No predecessors!
  br label %68

68:                                               ; preds = %67
  store double 0.000000e+00, ptr %5, align 8
  br label %69

69:                                               ; preds = %68, %25
  %70 = load double, ptr %5, align 8
  %71 = call i64 @Float8GetDatum(double noundef %70)
  call void @llvm.lifetime.end.p0(i64 2, ptr %6) #10
  call void @llvm.lifetime.end.p0(i64 8, ptr %5) #10
  call void @llvm.lifetime.end.p0(i64 2, ptr %4) #10
  call void @llvm.lifetime.end.p0(i64 8, ptr %3) #10
  ret i64 %71
}