; Function Attrs: nounwind uwtable
define dso_local i64 @gist_point_distance(ptr noundef readonly captures(none) %0) local_unnamed_addr #0 {
  %2 = getelementptr inbounds nuw i8, ptr %0, i64 64
  %3 = load i64, ptr %2, align 8
  %4 = trunc i64 %3 to i16
  %cond = icmp ult i16 %4, 20
  br i1 %cond, label %5, label %26

5:                                                ; preds = %1
  %6 = getelementptr inbounds nuw i8, ptr %0, i64 32
  %7 = load i64, ptr %6, align 8
  %8 = inttoptr i64 %7 to ptr
  %9 = getelementptr inbounds nuw i8, ptr %8, i64 16
  %10 = load ptr, ptr %9, align 8
  %11 = getelementptr inbounds nuw i8, ptr %10, i64 16
  %12 = load i16, ptr %11, align 4
  %13 = zext i16 %12 to i64
  %14 = getelementptr inbounds nuw i8, ptr %10, i64 %13
  %15 = getelementptr inbounds nuw i8, ptr %14, i64 12
  %16 = load i16, ptr %15, align 4
  %17 = and i16 %16, 1
  %18 = icmp ne i16 %17, 0
  %19 = load i64, ptr %8, align 8
  %20 = inttoptr i64 %19 to ptr
  %21 = getelementptr inbounds nuw i8, ptr %0, i64 48
  %22 = load i64, ptr %21, align 8
  %23 = inttoptr i64 %22 to ptr
  %24 = tail call fastcc double @computeDistance(i1 noundef zeroext %18, ptr noundef %20, ptr noundef %23)
  %25 = bitcast double %24 to i64
  ret i64 %25

26:                                               ; preds = %1
  %27 = trunc i64 %3 to i32
  %28 = and i32 %27, 65535
  %29 = tail call zeroext i1 @errstart_cold(i32 noundef 21, ptr noundef null) #15
  tail call void @llvm.assume(i1 %29)
  %30 = tail call i32 (ptr, ...) @errmsg_internal(ptr noundef nonnull @.str, i32 noundef %28) #16
  tail call void @errfinish(ptr noundef nonnull @.str.1, i32 noundef 1470, ptr noundef nonnull @__func__.gist_point_distance) #16
  unreachable
}